; Function Attrs: nounwind uwtable
define i32 @Msat_SolverAddClause(ptr noundef %0, ptr noundef %1) local_unnamed_addr #0 {
  %3 = alloca ptr, align 8
  call void @llvm.lifetime.start.p0(i64 8, ptr nonnull %3) #8
  %4 = call i32 @Msat_ClauseCreate(ptr noundef %0, ptr noundef %1, i32 noundef 0, ptr noundef nonnull %3) #8
  %5 = load ptr, ptr %3, align 8, !tbaa !25
  %.not = icmp eq ptr %5, null
  br i1 %.not, label %9, label %6

6:                                                ; preds = %2
  %7 = getelementptr inbounds nuw i8, ptr %0, i64 8
  %8 = load ptr, ptr %7, align 8, !tbaa !27
  call void @Msat_ClauseVecPush(ptr noundef %8, ptr noundef nonnull %5) #8
  br label %9

9:                                                ; preds = %6, %2
  call void @llvm.lifetime.end.p0(i64 8, ptr nonnull %3) #8
  ret i32 %4
}